target datalayout = "e-m:e-p270:32:32-p271:32:32-p272:64:64-i64:64-i128:128-f80:128-n8:16:32:64-S128"
target triple = "x86_64-pc-linux-gnu"

%"struct.llvm::BTF::BPFFieldReloc" = type { i32, i32, i32, i32 }
%"struct.__gnu_cxx::__ops::_Iter_comp_iter.119" = type { i8 }
%"struct.__gnu_cxx::__ops::_Val_comp_iter.123" = type { i8 }

; Function Attrs: mustprogress nounwind uwtable
define linkonce_odr hidden noundef ptr @_ZNSt20__copy_move_backwardILb1ELb1ESt26random_access_iterator_tagE13__copy_move_bIN4llvm3BTF13BPFFieldRelocEEEPT_PKS6_S9_S7_(ptr noundef %0, ptr noundef %1, ptr noundef %2) #0 comdat align 2 {
  %4 = alloca ptr, align 8
  %5 = alloca ptr, align 8
  %6 = alloca ptr, align 8
  %7 = alloca i64, align 8
  store ptr %0, ptr %4, align 8
  store ptr %1, ptr %5, align 8
  store ptr %2, ptr %6, align 8
  %8 = load ptr, ptr %5, align 8
  %9 = load ptr, ptr %4, align 8
  %10 = ptrtoint ptr %8 to i64
  %11 = ptrtoint ptr %9 to i64
  %12 = sub i64 %10, %11
  %13 = sdiv exact i64 %12, 16
  store i64 %13, ptr %7, align 8
  %14 = load i64, ptr %7, align 8
  %15 = icmp ne i64 %14, 0
  br i1 %15, label %16, label %24

16:                                               ; preds = %3
  %17 = load ptr, ptr %6, align 8
  %18 = load i64, ptr %7, align 8
  %19 = sub i64 0, %18
  %20 = getelementptr inbounds %"struct.llvm::BTF::BPFFieldReloc", ptr %17, i64 %19
  %21 = load ptr, ptr %4, align 8
  %22 = load i64, ptr %7, align 8
  %23 = mul i64 16, %22
  call void @llvm.memmove.p0.p0.i64(ptr align 4 %20, ptr align 4 %21, i64 %23, i1 false)
  br label %24

24:                                               ; preds = %16, %3
  %25 = load ptr, ptr %6, align 8
  %26 = load i64, ptr %7, align 8
  %27 = sub i64 0, %26
  %28 = getelementptr inbounds %"struct.llvm::BTF::BPFFieldReloc", ptr %25, i64 %27
  ret ptr %28
}

; Function Attrs: mustprogress nounwind uwtable
define linkonce_odr noundef ptr @_ZSt23__copy_move_backward_a2ILb1EPN4llvm3BTF13BPFFieldRelocES3_ET1_T0_S5_S4_(ptr noundef %0, ptr noundef %1, ptr noundef %2) #0 comdat {
  %4 = alloca ptr, align 8
  %5 = alloca ptr, align 8
  %6 = alloca ptr, align 8
  store ptr %0, ptr %4, align 8
  store ptr %1, ptr %5, align 8
  store ptr %2, ptr %6, align 8
  %7 = load ptr, ptr %4, align 8
  %8 = load ptr, ptr %5, align 8
  %9 = load ptr, ptr %6, align 8
  %10 = call noundef ptr @_ZNSt20__copy_move_backwardILb1ELb1ESt26random_access_iterator_tagE13__copy_move_bIN4llvm3BTF13BPFFieldRelocEEEPT_PKS6_S9_S7_(ptr noundef %7, ptr noundef %8, ptr noundef %9)
  ret ptr %10
}

; Function Attrs: mustprogress nounwind uwtable
define linkonce_odr noundef ptr @_ZSt12__niter_wrapIPN4llvm3BTF13BPFFieldRelocEET_RKS4_S4_(ptr noundef nonnull align 8 dereferenceable(8) %0, ptr noundef %1) #0 comdat {
  %3 = alloca ptr, align 8
  %4 = alloca ptr, align 8
  store ptr %0, ptr %3, align 8
  store ptr %1, ptr %4, align 8
  %5 = load ptr, ptr %4, align 8
  ret ptr %5
}

; Function Attrs: mustprogress nounwind uwtable
define linkonce_odr noundef ptr @_ZSt23__copy_move_backward_a1ILb1EPN4llvm3BTF13BPFFieldRelocES3_ET1_T0_S5_S4_(ptr noundef %0, ptr noundef %1, ptr noundef %2) #0 comdat {
  %4 = alloca ptr, align 8
  %5 = alloca ptr, align 8
  %6 = alloca ptr, align 8
  store ptr %0, ptr %4, align 8
  store ptr %1, ptr %5, align 8
  store ptr %2, ptr %6, align 8
  %7 = load ptr, ptr %4, align 8
  %8 = load ptr, ptr %5, align 8
  %9 = load ptr, ptr %6, align 8
  %10 = call noundef ptr @_ZSt23__copy_move_backward_a2ILb1EPN4llvm3BTF13BPFFieldRelocES3_ET1_T0_S5_S4_(ptr noundef %7, ptr noundef %8, ptr noundef %9)
  ret ptr %10
}

; Function Attrs: mustprogress nounwind uwtable
define linkonce_odr noundef ptr @_ZSt12__niter_baseIPN4llvm3BTF13BPFFieldRelocEET_S4_(ptr noundef %0) #0 comdat {
  %2 = alloca ptr, align 8
  store ptr %0, ptr %2, align 8
  %3 = load ptr, ptr %2, align 8
  ret ptr %3
}

; Function Attrs: mustprogress nounwind uwtable
define internal noundef zeroext i1 @"_ZN9__gnu_cxx5__ops14_Val_comp_iterIZN4llvm9BTFParser14parseRelocInfoERNS3_12ParseContextERNS2_13DataExtractorEmmE3$_0EclINS2_3BTF13BPFFieldRelocEPSC_EEbRT_T0_"(ptr noundef nonnull align 1 dereferenceable(1) %0, ptr noundef nonnull align 4 dereferenceable(16) %1, ptr noundef %2) #0 align 2 {
  %4 = alloca ptr, align 8
  %5 = alloca ptr, align 8
  %6 = alloca ptr, align 8
  store ptr %0, ptr %4, align 8
  store ptr %1, ptr %5, align 8
  store ptr %2, ptr %6, align 8
  %7 = load ptr, ptr %4, align 8
  %8 = load ptr, ptr %5, align 8
  %9 = load ptr, ptr %6, align 8
  %10 = call noundef zeroext i1 @"_ZZN4llvm9BTFParser14parseRelocInfoERNS0_12ParseContextERNS_13DataExtractorEmmENK3$_0clERKNS_3BTF13BPFFieldRelocES9_"(ptr noundef nonnull align 1 dereferenceable(1) %7, ptr noundef nonnull align 4 dereferenceable(16) %8, ptr noundef nonnull align 4 dereferenceable(16) %9)
  ret i1 %10
}

; Function Attrs: mustprogress nounwind uwtable
define internal void @"_ZN9__gnu_cxx5__ops14_Val_comp_iterIZN4llvm9BTFParser14parseRelocInfoERNS3_12ParseContextERNS2_13DataExtractorEmmE3$_0EC2EONS0_15_Iter_comp_iterIS8_EE"(ptr noundef nonnull align 1 dereferenceable(1) %0, ptr noundef nonnull align 1 dereferenceable(1) %1) unnamed_addr #0 align 2 {
  %3 = alloca ptr, align 8
  %4 = alloca ptr, align 8
  store ptr %0, ptr %3, align 8
  store ptr %1, ptr %4, align 8
  ret void
}

; Function Attrs: mustprogress nounwind uwtable
define linkonce_odr noundef ptr @_ZSt22__copy_move_backward_aILb1EPN4llvm3BTF13BPFFieldRelocES3_ET1_T0_S5_S4_(ptr noundef %0, ptr noundef %1, ptr noundef %2) #0 comdat {
  %4 = alloca ptr, align 8
  %5 = alloca ptr, align 8
  %6 = alloca ptr, align 8
  store ptr %0, ptr %4, align 8
  store ptr %1, ptr %5, align 8
  store ptr %2, ptr %6, align 8
  %7 = load ptr, ptr %4, align 8
  %8 = call noundef ptr @_ZSt12__niter_baseIPN4llvm3BTF13BPFFieldRelocEET_S4_(ptr noundef %7) #14
  %9 = load ptr, ptr %5, align 8
  %10 = call noundef ptr @_ZSt12__niter_baseIPN4llvm3BTF13BPFFieldRelocEET_S4_(ptr noundef %9) #14
  %11 = load ptr, ptr %6, align 8
  %12 = call noundef ptr @_ZSt12__niter_baseIPN4llvm3BTF13BPFFieldRelocEET_S4_(ptr noundef %11) #14
  %13 = call noundef ptr @_ZSt23__copy_move_backward_a1ILb1EPN4llvm3BTF13BPFFieldRelocES3_ET1_T0_S5_S4_(ptr noundef %8, ptr noundef %10, ptr noundef %12)
  %14 = call noundef ptr @_ZSt12__niter_wrapIPN4llvm3BTF13BPFFieldRelocEET_RKS4_S4_(ptr noundef nonnull align 8 dereferenceable(8) %6, ptr noundef %13)
  ret ptr %14
}

; Function Attrs: mustprogress nounwind uwtable
define linkonce_odr noundef ptr @_ZSt12__miter_baseIPN4llvm3BTF13BPFFieldRelocEET_S4_(ptr noundef %0) #0 comdat {
  %2 = alloca ptr, align 8
  store ptr %0, ptr %2, align 8
  %3 = load ptr, ptr %2, align 8
  ret ptr %3
}

; Function Attrs: mustprogress nounwind uwtable
define internal noundef zeroext i1 @"_ZZN4llvm9BTFParser14parseRelocInfoERNS0_12ParseContextERNS_13DataExtractorEmmENK3$_0clERKNS_3BTF13BPFFieldRelocES9_"(ptr noundef nonnull align 1 dereferenceable(1) %0, ptr noundef nonnull align 4 dereferenceable(16) %1, ptr noundef nonnull align 4 dereferenceable(16) %2) #0 align 2 {
  %4 = alloca ptr, align 8
  %5 = alloca ptr, align 8
  %6 = alloca ptr, align 8
  store ptr %0, ptr %4, align 8
  store ptr %1, ptr %5, align 8
  store ptr %2, ptr %6, align 8
  %7 = load ptr, ptr %5, align 8
  %8 = getelementptr inbounds nuw %"struct.llvm::BTF::BPFFieldReloc", ptr %7, i32 0, i32 0
  %9 = load i32, ptr %8, align 4
  %10 = load ptr, ptr %6, align 8
  %11 = getelementptr inbounds nuw %"struct.llvm::BTF::BPFFieldReloc", ptr %10, i32 0, i32 0
  %12 = load i32, ptr %11, align 4
  %13 = icmp ult i32 %9, %12
  ret i1 %13
}

; Function Attrs: mustprogress nounwind uwtable
define internal void @"_ZSt25__unguarded_linear_insertIPN4llvm3BTF13BPFFieldRelocEN9__gnu_cxx5__ops14_Val_comp_iterIZNS0_9BTFParser14parseRelocInfoERNS7_12ParseContextERNS0_13DataExtractorEmmE3$_0EEEvT_T0_"(ptr noundef %0) #0 {
  %2 = alloca %"struct.__gnu_cxx::__ops::_Val_comp_iter.123", align 1
  %3 = alloca ptr, align 8
  %4 = alloca %"struct.llvm::BTF::BPFFieldReloc", align 4
  %5 = alloca ptr, align 8
  store ptr %0, ptr %3, align 8
  %6 = load ptr, ptr %3, align 8
  call void @llvm.memcpy.p0.p0.i64(ptr align 4 %4, ptr align 4 %6, i64 16, i1 false)
  %7 = load ptr, ptr %3, align 8
  store ptr %7, ptr %5, align 8
  %8 = load ptr, ptr %5, align 8
  %9 = getelementptr inbounds %"struct.llvm::BTF::BPFFieldReloc", ptr %8, i32 -1
  store ptr %9, ptr %5, align 8
  br label %10

10:                                               ; preds = %13, %1
  %11 = load ptr, ptr %5, align 8
  %12 = call noundef zeroext i1 @"_ZN9__gnu_cxx5__ops14_Val_comp_iterIZN4llvm9BTFParser14parseRelocInfoERNS3_12ParseContextERNS2_13DataExtractorEmmE3$_0EclINS2_3BTF13BPFFieldRelocEPSC_EEbRT_T0_"(ptr noundef nonnull align 1 dereferenceable(1) %2, ptr noundef nonnull align 4 dereferenceable(16) %4, ptr noundef %11)
  br i1 %12, label %13, label %19

13:                                               ; preds = %10
  %14 = load ptr, ptr %5, align 8
  %15 = load ptr, ptr %3, align 8
  call void @llvm.memcpy.p0.p0.i64(ptr align 4 %15, ptr align 4 %14, i64 16, i1 false)
  %16 = load ptr, ptr %5, align 8
  store ptr %16, ptr %3, align 8
  %17 = load ptr, ptr %5, align 8
  %18 = getelementptr inbounds %"struct.llvm::BTF::BPFFieldReloc", ptr %17, i32 -1
  store ptr %18, ptr %5, align 8
  br label %10, !llvm.loop !49

19:                                               ; preds = %10
  %20 = load ptr, ptr %3, align 8
  call void @llvm.memcpy.p0.p0.i64(ptr align 4 %20, ptr align 4 %4, i64 16, i1 false)
  ret void
}

; Function Attrs: mustprogress nounwind uwtable
define internal void @"_ZN9__gnu_cxx5__ops15__val_comp_iterIZN4llvm9BTFParser14parseRelocInfoERNS3_12ParseContextERNS2_13DataExtractorEmmE3$_0EENS0_14_Val_comp_iterIT_EENS0_15_Iter_comp_iterISA_EE"() #0 {
  %1 = alloca %"struct.__gnu_cxx::__ops::_Val_comp_iter.123", align 1
  %2 = alloca %"struct.__gnu_cxx::__ops::_Iter_comp_iter.119", align 1
  call void @"_ZN9__gnu_cxx5__ops14_Val_comp_iterIZN4llvm9BTFParser14parseRelocInfoERNS3_12ParseContextERNS2_13DataExtractorEmmE3$_0EC2EONS0_15_Iter_comp_iterIS8_EE"(ptr noundef nonnull align 1 dereferenceable(1) %1, ptr noundef nonnull align 1 dereferenceable(1) %2)
  ret void
}

; Function Attrs: mustprogress nounwind uwtable
define linkonce_odr noundef ptr @_ZSt13move_backwardIPN4llvm3BTF13BPFFieldRelocES3_ET0_T_S5_S4_(ptr noundef %0, ptr noundef %1, ptr noundef %2) #0 comdat {
  %4 = alloca ptr, align 8
  %5 = alloca ptr, align 8
  %6 = alloca ptr, align 8
  store ptr %0, ptr %4, align 8
  store ptr %1, ptr %5, align 8
  store ptr %2, ptr %6, align 8
  %7 = load ptr, ptr %4, align 8
  %8 = call noundef ptr @_ZSt12__miter_baseIPN4llvm3BTF13BPFFieldRelocEET_S4_(ptr noundef %7)
  %9 = load ptr, ptr %5, align 8
  %10 = call noundef ptr @_ZSt12__miter_baseIPN4llvm3BTF13BPFFieldRelocEET_S4_(ptr noundef %9)
  %11 = load ptr, ptr %6, align 8
  %12 = call noundef ptr @_ZSt22__copy_move_backward_aILb1EPN4llvm3BTF13BPFFieldRelocES3_ET1_T0_S5_S4_(ptr noundef %8, ptr noundef %10, ptr noundef %11)
  ret ptr %12
}

; Function Attrs: mustprogress nounwind uwtable
define internal noundef zeroext i1 @"_ZN9__gnu_cxx5__ops15_Iter_comp_iterIZN4llvm9BTFParser14parseRelocInfoERNS3_12ParseContextERNS2_13DataExtractorEmmE3$_0EclIPNS2_3BTF13BPFFieldRelocESD_EEbT_T0_"(ptr noundef nonnull align 1 dereferenceable(1) %0, ptr noundef %1, ptr noundef %2) #0 align 2 {
  %4 = alloca ptr, align 8
  %5 = alloca ptr, align 8
  %6 = alloca ptr, align 8
  store ptr %0, ptr %4, align 8
  store ptr %1, ptr %5, align 8
  store ptr %2, ptr %6, align 8
  %7 = load ptr, ptr %4, align 8
  %8 = load ptr, ptr %5, align 8
  %9 = load ptr, ptr %6, align 8
  %10 = call noundef zeroext i1 @"_ZZN4llvm9BTFParser14parseRelocInfoERNS0_12ParseContextERNS_13DataExtractorEmmENK3$_0clERKNS_3BTF13BPFFieldRelocES9_"(ptr noundef nonnull align 1 dereferenceable(1) %7, ptr noundef nonnull align 4 dereferenceable(16) %8, ptr noundef nonnull align 4 dereferenceable(16) %9)
  ret i1 %10
}

; Function Attrs: mustprogress nounwind uwtable
define internal void @"_ZSt16__insertion_sortIPN4llvm3BTF13BPFFieldRelocEN9__gnu_cxx5__ops15_Iter_comp_iterIZNS0_9BTFParser14parseRelocInfoERNS7_12ParseContextERNS0_13DataExtractorEmmE3$_0EEEvT_SE_T0_"(ptr noundef %0, ptr noundef %1) #0 {
  %3 = alloca %"struct.__gnu_cxx::__ops::_Iter_comp_iter.119", align 1
  %4 = alloca ptr, align 8
  %5 = alloca ptr, align 8
  %6 = alloca ptr, align 8
  %7 = alloca %"struct.llvm::BTF::BPFFieldReloc", align 4
  %8 = alloca %"struct.__gnu_cxx::__ops::_Iter_comp_iter.119", align 1
  store ptr %0, ptr %4, align 8
  store ptr %1, ptr %5, align 8
  %9 = load ptr, ptr %4, align 8
  %10 = load ptr, ptr %5, align 8
  %11 = icmp eq ptr %9, %10
  br i1 %11, label %12, label %13

12:                                               ; preds = %2
  br label %38

13:                                               ; preds = %2
  %14 = load ptr, ptr %4, align 8
  %15 = getelementptr inbounds %"struct.llvm::BTF::BPFFieldReloc", ptr %14, i64 1
  store ptr %15, ptr %6, align 8
  br label %16

16:                                               ; preds = %35, %13
  %17 = load ptr, ptr %6, align 8
  %18 = load ptr, ptr %5, align 8
  %19 = icmp ne ptr %17, %18
  br i1 %19, label %20, label %38

20:                                               ; preds = %16
  %21 = load ptr, ptr %6, align 8
  %22 = load ptr, ptr %4, align 8
  %23 = call noundef zeroext i1 @"_ZN9__gnu_cxx5__ops15_Iter_comp_iterIZN4llvm9BTFParser14parseRelocInfoERNS3_12ParseContextERNS2_13DataExtractorEmmE3$_0EclIPNS2_3BTF13BPFFieldRelocESD_EEbT_T0_"(ptr noundef nonnull align 1 dereferenceable(1) %3, ptr noundef %21, ptr noundef %22)
  br i1 %23, label %24, label %32

24:                                               ; preds = %20
  %25 = load ptr, ptr %6, align 8
  call void @llvm.memcpy.p0.p0.i64(ptr align 4 %7, ptr align 4 %25, i64 16, i1 false)
  %26 = load ptr, ptr %4, align 8
  %27 = load ptr, ptr %6, align 8
  %28 = load ptr, ptr %6, align 8
  %29 = getelementptr inbounds %"struct.llvm::BTF::BPFFieldReloc", ptr %28, i64 1
  %30 = call noundef ptr @_ZSt13move_backwardIPN4llvm3BTF13BPFFieldRelocES3_ET0_T_S5_S4_(ptr noundef %26, ptr noundef %27, ptr noundef %29)
  %31 = load ptr, ptr %4, align 8
  call void @llvm.memcpy.p0.p0.i64(ptr align 4 %31, ptr align 4 %7, i64 16, i1 false)
  br label %34

32:                                               ; preds = %20
  %33 = load ptr, ptr %6, align 8
  call void @llvm.memcpy.p0.p0.i64(ptr align 1 %8, ptr align 1 %3, i64 1, i1 false)
  call void @"_ZN9__gnu_cxx5__ops15__val_comp_iterIZN4llvm9BTFParser14parseRelocInfoERNS3_12ParseContextERNS2_13DataExtractorEmmE3$_0EENS0_14_Val_comp_iterIT_EENS0_15_Iter_comp_iterISA_EE"()
  call void @"_ZSt25__unguarded_linear_insertIPN4llvm3BTF13BPFFieldRelocEN9__gnu_cxx5__ops14_Val_comp_iterIZNS0_9BTFParser14parseRelocInfoERNS7_12ParseContextERNS0_13DataExtractorEmmE3$_0EEEvT_T0_"(ptr noundef %33)
  br label %34

34:                                               ; preds = %32, %24
  br label %35

35:                                               ; preds = %34
  %36 = load ptr, ptr %6, align 8
  %37 = getelementptr inbounds %"struct.llvm::BTF::BPFFieldReloc", ptr %36, i32 1
  store ptr %37, ptr %6, align 8
  br label %16, !llvm.loop !48

38:                                               ; preds = %16, %12
  ret void
}

; Function Attrs: mustprogress nounwind uwtable
define internal void @"_ZSt21__inplace_stable_sortIPN4llvm3BTF13BPFFieldRelocEN9__gnu_cxx5__ops15_Iter_comp_iterIZNS0_9BTFParser14parseRelocInfoERNS7_12ParseContextERNS0_13DataExtractorEmmE3$_0EEEvT_SE_T0_"(ptr noundef %0, ptr noundef %1) #0 {
  %3 = alloca %"struct.__gnu_cxx::__ops::_Iter_comp_iter.119", align 1
  %4 = alloca ptr, align 8
  %5 = alloca ptr, align 8
  %6 = alloca %"struct.__gnu_cxx::__ops::_Iter_comp_iter.119", align 1
  %7 = alloca ptr, align 8
  %8 = alloca %"struct.__gnu_cxx::__ops::_Iter_comp_iter.119", align 1
  %9 = alloca %"struct.__gnu_cxx::__ops::_Iter_comp_iter.119", align 1
  %10 = alloca %"struct.__gnu_cxx::__ops::_Iter_comp_iter.119", align 1
  store ptr %0, ptr %4, align 8
  store ptr %1, ptr %5, align 8
  %11 = load ptr, ptr %5, align 8
  %12 = load ptr, ptr %4, align 8
  %13 = ptrtoint ptr %11 to i64
  %14 = ptrtoint ptr %12 to i64
  %15 = sub i64 %13, %14
  %16 = sdiv exact i64 %15, 16
  %17 = icmp slt i64 %16, 15
  br i1 %17, label %18, label %21

18:                                               ; preds = %2
  %19 = load ptr, ptr %4, align 8
  %20 = load ptr, ptr %5, align 8
  call void @llvm.memcpy.p0.p0.i64(ptr align 1 %6, ptr align 1 %3, i64 1, i1 false)
  call void @"_ZSt16__insertion_sortIPN4llvm3BTF13BPFFieldRelocEN9__gnu_cxx5__ops15_Iter_comp_iterIZNS0_9BTFParser14parseRelocInfoERNS7_12ParseContextERNS0_13DataExtractorEmmE3$_0EEEvT_SE_T0_"(ptr noundef %19, ptr noundef %20)
  br label %50

21:                                               ; preds = %2
  %22 = load ptr, ptr %4, align 8
  %23 = load ptr, ptr %5, align 8
  %24 = load ptr, ptr %4, align 8
  %25 = ptrtoint ptr %23 to i64
  %26 = ptrtoint ptr %24 to i64
  %27 = sub i64 %25, %26
  %28 = sdiv exact i64 %27, 16
  %29 = sdiv i64 %28, 2
  %30 = getelementptr inbounds %"struct.llvm::BTF::BPFFieldReloc", ptr %22, i64 %29
  store ptr %30, ptr %7, align 8
  %31 = load ptr, ptr %4, align 8
  %32 = load ptr, ptr %7, align 8
  call void @llvm.memcpy.p0.p0.i64(ptr align 1 %8, ptr align 1 %3, i64 1, i1 false)
  call void @"_ZSt21__inplace_stable_sortIPN4llvm3BTF13BPFFieldRelocEN9__gnu_cxx5__ops15_Iter_comp_iterIZNS0_9BTFParser14parseRelocInfoERNS7_12ParseContextERNS0_13DataExtractorEmmE3$_0EEEvT_SE_T0_"(ptr noundef %31, ptr noundef %32)
  %33 = load ptr, ptr %7, align 8
  %34 = load ptr, ptr %5, align 8
  call void @llvm.memcpy.p0.p0.i64(ptr align 1 %9, ptr align 1 %3, i64 1, i1 false)
  call void @"_ZSt21__inplace_stable_sortIPN4llvm3BTF13BPFFieldRelocEN9__gnu_cxx5__ops15_Iter_comp_iterIZNS0_9BTFParser14parseRelocInfoERNS7_12ParseContextERNS0_13DataExtractorEmmE3$_0EEEvT_SE_T0_"(ptr noundef %33, ptr noundef %34)
  %35 = load ptr, ptr %4, align 8
  %36 = load ptr, ptr %7, align 8
  %37 = load ptr, ptr %5, align 8
  %38 = load ptr, ptr %7, align 8
  %39 = load ptr, ptr %4, align 8
  %40 = ptrtoint ptr %38 to i64
  %41 = ptrtoint ptr %39 to i64
  %42 = sub i64 %40, %41
  %43 = sdiv exact i64 %42, 16
  %44 = load ptr, ptr %5, align 8
  %45 = load ptr, ptr %7, align 8
  %46 = ptrtoint ptr %44 to i64
  %47 = ptrtoint ptr %45 to i64
  %48 = sub i64 %46, %47
  %49 = sdiv exact i64 %48, 16
  call void @llvm.memcpy.p0.p0.i64(ptr align 1 %10, ptr align 1 %3, i64 1, i1 false)
  call void @"_ZSt22__merge_without_bufferIPN4llvm3BTF13BPFFieldRelocElN9__gnu_cxx5__ops15_Iter_comp_iterIZNS0_9BTFParser14parseRelocInfoERNS7_12ParseContextERNS0_13DataExtractorEmmE3$_0EEEvT_SE_SE_T0_SF_T1_"(ptr noundef %35, ptr noundef %36, ptr noundef %37, i64 noundef %43, i64 noundef %49)
  br label %50

50:                                               ; preds = %21, %18
  ret void
}