; Function Attrs: mustprogress nounwind uwtable
define internal fastcc void @"_ZSt21__inplace_stable_sortIPN4llvm3BTF13BPFFieldRelocEN9__gnu_cxx5__ops15_Iter_comp_iterIZNS0_9BTFParser14parseRelocInfoERNS7_12ParseContextERNS0_13DataExtractorEmmE3$_0EEEvT_SE_T0_"(ptr noundef %0, ptr noundef %1) unnamed_addr #0 {
  %.sroa.3.i.i = alloca { i32, i32, i32 }, align 8
  %3 = alloca %"struct.llvm::BTF::BPFFieldReloc", align 4
  %4 = ptrtoint ptr %1 to i64
  %5 = ptrtoint ptr %0 to i64
  %6 = sub i64 %4, %5
  %7 = ashr exact i64 %6, 4
  %8 = icmp slt i64 %7, 15
  br i1 %8, label %9, label %23

9:                                                ; preds = %2
  call void @llvm.lifetime.start.p0(i64 16, ptr nonnull %3)
  %10 = icmp eq ptr %0, %1
  %.016.i = getelementptr inbounds nuw i8, ptr %0, i64 16
  %.not17.i = icmp eq ptr %.016.i, %1
  %or.cond = select i1 %10, i1 true, i1 %.not17.i
  br i1 %or.cond, label %"_ZSt16__insertion_sortIPN4llvm3BTF13BPFFieldRelocEN9__gnu_cxx5__ops15_Iter_comp_iterIZNS0_9BTFParser14parseRelocInfoERNS7_12ParseContextERNS0_13DataExtractorEmmE3$_0EEEvT_SE_T0_.exit", label %.lr.ph.i

.lr.ph.i:                                         ; preds = %9, %22
  %.019.i = phi ptr [ %.0.i, %22 ], [ %.016.i, %9 ]
  %.pn18.i = phi ptr [ %.019.i, %22 ], [ %0, %9 ]
  %.0.val.i = load i32, ptr %.019.i, align 4
  %.val.i = load i32, ptr %0, align 4
  %11 = icmp ult i32 %.0.val.i, %.val.i
  br i1 %11, label %12, label %19

12:                                               ; preds = %.lr.ph.i
  call void @llvm.memcpy.p0.p0.i64(ptr noundef nonnull align 4 dereferenceable(16) %3, ptr noundef nonnull align 4 dereferenceable(16) %.019.i, i64 16, i1 false)
  %13 = getelementptr inbounds nuw i8, ptr %.pn18.i, i64 32
  %14 = ptrtoint ptr %.019.i to i64
  %15 = sub i64 %14, %5
  %16 = ashr exact i64 %15, 4
  %17 = sub nsw i64 0, %16
  %18 = getelementptr inbounds %"struct.llvm::BTF::BPFFieldReloc", ptr %13, i64 %17
  tail call void @llvm.memmove.p0.p0.i64(ptr noundef nonnull align 4 dereferenceable(1) %18, ptr noundef nonnull align 4 dereferenceable(1) %0, i64 %15, i1 false)
  call void @llvm.memcpy.p0.p0.i64(ptr noundef nonnull align 4 dereferenceable(16) %0, ptr noundef nonnull align 4 dereferenceable(16) %3, i64 16, i1 false)
  br label %22

19:                                               ; preds = %.lr.ph.i
  call void @llvm.lifetime.start.p0(i64 12, ptr nonnull %.sroa.3.i.i)
  %.sroa.3.0..sroa_idx.i.i = getelementptr inbounds nuw i8, ptr %.pn18.i, i64 20
  call void @llvm.memcpy.p0.p0.i64(ptr noundef nonnull align 8 dereferenceable(12) %.sroa.3.i.i, ptr noundef nonnull align 4 dereferenceable(12) %.sroa.3.0..sroa_idx.i.i, i64 12, i1 false)
  %.0.val12.i.i = load i32, ptr %.pn18.i, align 4
  %20 = icmp ult i32 %.0.val.i, %.0.val12.i.i
  br i1 %20, label %.lr.ph.i.i, label %"_ZSt25__unguarded_linear_insertIPN4llvm3BTF13BPFFieldRelocEN9__gnu_cxx5__ops14_Val_comp_iterIZNS0_9BTFParser14parseRelocInfoERNS7_12ParseContextERNS0_13DataExtractorEmmE3$_0EEEvT_T0_.exit.i"

.lr.ph.i.i:                                       ; preds = %19, %.lr.ph.i.i
  %.014.i.i = phi ptr [ %.0.i.i, %.lr.ph.i.i ], [ %.pn18.i, %19 ]
  %.0913.i.i = phi ptr [ %.014.i.i, %.lr.ph.i.i ], [ %.019.i, %19 ]
  tail call void @llvm.memcpy.p0.p0.i64(ptr noundef nonnull align 4 dereferenceable(16) %.0913.i.i, ptr noundef nonnull align 4 dereferenceable(16) %.014.i.i, i64 16, i1 false)
  %.0.i.i = getelementptr inbounds i8, ptr %.014.i.i, i64 -16
  %.0.val.i.i = load i32, ptr %.0.i.i, align 4
  %21 = icmp ult i32 %.0.val.i, %.0.val.i.i
  br i1 %21, label %.lr.ph.i.i, label %"_ZSt25__unguarded_linear_insertIPN4llvm3BTF13BPFFieldRelocEN9__gnu_cxx5__ops14_Val_comp_iterIZNS0_9BTFParser14parseRelocInfoERNS7_12ParseContextERNS0_13DataExtractorEmmE3$_0EEEvT_T0_.exit.i", !llvm.loop !385

"_ZSt25__unguarded_linear_insertIPN4llvm3BTF13BPFFieldRelocEN9__gnu_cxx5__ops14_Val_comp_iterIZNS0_9BTFParser14parseRelocInfoERNS7_12ParseContextERNS0_13DataExtractorEmmE3$_0EEEvT_T0_.exit.i": ; preds = %.lr.ph.i.i, %19
  %.09.lcssa.i.i = phi ptr [ %.019.i, %19 ], [ %.014.i.i, %.lr.ph.i.i ]
  store i32 %.0.val.i, ptr %.09.lcssa.i.i, align 4
  %.sroa.3.0..09.sroa_idx.i.i = getelementptr inbounds nuw i8, ptr %.09.lcssa.i.i, i64 4
  call void @llvm.memcpy.p0.p0.i64(ptr noundef nonnull align 4 dereferenceable(12) %.sroa.3.0..09.sroa_idx.i.i, ptr noundef nonnull align 8 dereferenceable(12) %.sroa.3.i.i, i64 12, i1 false)
  call void @llvm.lifetime.end.p0(i64 12, ptr nonnull %.sroa.3.i.i)
  br label %22

22:                                               ; preds = %"_ZSt25__unguarded_linear_insertIPN4llvm3BTF13BPFFieldRelocEN9__gnu_cxx5__ops14_Val_comp_iterIZNS0_9BTFParser14parseRelocInfoERNS7_12ParseContextERNS0_13DataExtractorEmmE3$_0EEEvT_T0_.exit.i", %12
  %.0.i = getelementptr inbounds nuw i8, ptr %.019.i, i64 16
  %.not.i = icmp eq ptr %.0.i, %1
  br i1 %.not.i, label %"_ZSt16__insertion_sortIPN4llvm3BTF13BPFFieldRelocEN9__gnu_cxx5__ops15_Iter_comp_iterIZNS0_9BTFParser14parseRelocInfoERNS7_12ParseContextERNS0_13DataExtractorEmmE3$_0EEEvT_SE_T0_.exit", label %.lr.ph.i, !llvm.loop !386

"_ZSt16__insertion_sortIPN4llvm3BTF13BPFFieldRelocEN9__gnu_cxx5__ops15_Iter_comp_iterIZNS0_9BTFParser14parseRelocInfoERNS7_12ParseContextERNS0_13DataExtractorEmmE3$_0EEEvT_SE_T0_.exit": ; preds = %22, %9
  call void @llvm.lifetime.end.p0(i64 16, ptr nonnull %3)
  br label %common.ret25

common.ret25:                                     ; preds = %23, %"_ZSt16__insertion_sortIPN4llvm3BTF13BPFFieldRelocEN9__gnu_cxx5__ops15_Iter_comp_iterIZNS0_9BTFParser14parseRelocInfoERNS7_12ParseContextERNS0_13DataExtractorEmmE3$_0EEEvT_SE_T0_.exit"
  ret void

23:                                               ; preds = %2
  %24 = lshr i64 %7, 1
  %25 = getelementptr inbounds nuw %"struct.llvm::BTF::BPFFieldReloc", ptr %0, i64 %24
  tail call fastcc void @"_ZSt21__inplace_stable_sortIPN4llvm3BTF13BPFFieldRelocEN9__gnu_cxx5__ops15_Iter_comp_iterIZNS0_9BTFParser14parseRelocInfoERNS7_12ParseContextERNS0_13DataExtractorEmmE3$_0EEEvT_SE_T0_"(ptr noundef %0, ptr noundef %25)
  tail call fastcc void @"_ZSt21__inplace_stable_sortIPN4llvm3BTF13BPFFieldRelocEN9__gnu_cxx5__ops15_Iter_comp_iterIZNS0_9BTFParser14parseRelocInfoERNS7_12ParseContextERNS0_13DataExtractorEmmE3$_0EEEvT_SE_T0_"(ptr noundef %25, ptr noundef %1)
  %26 = ptrtoint ptr %25 to i64
  %27 = sub i64 %4, %26
  %28 = ashr exact i64 %27, 4
  tail call fastcc void @"_ZSt22__merge_without_bufferIPN4llvm3BTF13BPFFieldRelocElN9__gnu_cxx5__ops15_Iter_comp_iterIZNS0_9BTFParser14parseRelocInfoERNS7_12ParseContextERNS0_13DataExtractorEmmE3$_0EEEvT_SE_SE_T0_SF_T1_"(ptr noundef %0, ptr noundef %25, ptr noundef %1, i64 noundef %24, i64 noundef %28)
  br label %common.ret25
}